target datalayout = "e-m:e-p270:32:32-p271:32:32-p272:64:64-i64:64-i128:128-f80:128-n8:16:32:64-S128"
target triple = "x86_64-pc-linux-gnu"

%struct.APEContext = type { ptr, ptr, %struct.BswapDSPContext, %struct.LLAudDSPContext, i32, i32, i32, i32, i32, i32, i32, i32, i32, i32, %struct.APEPredictor, %struct.APEPredictor64, ptr, i32, [2 x ptr], ptr, i32, [2 x ptr], i32, [3 x ptr], %struct.APERangecoder, %struct.APERice, %struct.APERice, [3 x [2 x %struct.APEFilter]], %struct.GetBitContext, ptr, ptr, i32, ptr, i32, i32, ptr, ptr, ptr, ptr }
%struct.BswapDSPContext = type { ptr, ptr }
%struct.LLAudDSPContext = type { ptr, ptr }
%struct.APEPredictor = type { ptr, [2 x i32], [2 x i32], [2 x i32], [2 x [4 x i32]], [2 x [5 x i32]], [562 x i32], i32 }
%struct.APEPredictor64 = type { ptr, [2 x i64], [2 x i64], [2 x i64], [2 x [4 x i64]], [2 x [5 x i64]], [562 x i64] }
%struct.APERangecoder = type { i32, i32, i32, i32 }
%struct.APERice = type { i32, i32 }
%struct.APEFilter = type { ptr, ptr, ptr, ptr, i32 }
%struct.GetBitContext = type { ptr, ptr, i32, i32, i32 }

@.str.14 = private unnamed_addr constant [19 x i8] c"Too many bits: %u\0A\00", align 1

; Function Attrs: alwaysinline nounwind willreturn memory(none) uwtable
define internal i32 @av_bswap32(i32 noundef %0) #6 {
  %2 = alloca i32, align 4
  store i32 %0, ptr %2, align 4, !tbaa !32
  %3 = load i32, ptr %2, align 4, !tbaa !32
  %4 = shl i32 %3, 8
  %5 = and i32 %4, 65280
  %6 = load i32, ptr %2, align 4, !tbaa !32
  %7 = lshr i32 %6, 8
  %8 = and i32 %7, 255
  %9 = or i32 %5, %8
  %10 = shl i32 %9, 16
  %11 = load i32, ptr %2, align 4, !tbaa !32
  %12 = lshr i32 %11, 16
  %13 = shl i32 %12, 8
  %14 = and i32 %13, 65280
  %15 = load i32, ptr %2, align 4, !tbaa !32
  %16 = lshr i32 %15, 16
  %17 = lshr i32 %16, 8
  %18 = and i32 %17, 255
  %19 = or i32 %14, %18
  %20 = or i32 %10, %19
  ret i32 %20
}

; Function Attrs: inlinehint nounwind uwtable
define internal i32 @get_bits1(ptr noundef %0) #5 {
  %2 = alloca ptr, align 8
  %3 = alloca i32, align 4
  %4 = alloca i8, align 1
  store ptr %0, ptr %2, align 8, !tbaa !135
  call void @llvm.lifetime.start.p0(i64 4, ptr %3) #11
  %5 = load ptr, ptr %2, align 8, !tbaa !135
  %6 = getelementptr inbounds nuw %struct.GetBitContext, ptr %5, i32 0, i32 2
  %7 = load i32, ptr %6, align 8, !tbaa !149
  store i32 %7, ptr %3, align 4, !tbaa !32
  call void @llvm.lifetime.start.p0(i64 1, ptr %4) #11
  %8 = load ptr, ptr %2, align 8, !tbaa !135
  %9 = getelementptr inbounds nuw %struct.GetBitContext, ptr %8, i32 0, i32 0
  %10 = load ptr, ptr %9, align 8, !tbaa !151
  %11 = load i32, ptr %3, align 4, !tbaa !32
  %12 = lshr i32 %11, 3
  %13 = zext i32 %12 to i64
  %14 = getelementptr inbounds nuw i8, ptr %10, i64 %13
  %15 = load i8, ptr %14, align 1, !tbaa !51
  store i8 %15, ptr %4, align 1, !tbaa !51
  %16 = load i32, ptr %3, align 4, !tbaa !32
  %17 = and i32 %16, 7
  %18 = load i8, ptr %4, align 1, !tbaa !51
  %19 = zext i8 %18 to i32
  %20 = shl i32 %19, %17
  %21 = trunc i32 %20 to i8
  store i8 %21, ptr %4, align 1, !tbaa !51
  %22 = load i8, ptr %4, align 1, !tbaa !51
  %23 = zext i8 %22 to i32
  %24 = ashr i32 %23, 7
  %25 = trunc i32 %24 to i8
  store i8 %25, ptr %4, align 1, !tbaa !51
  %26 = load ptr, ptr %2, align 8, !tbaa !135
  %27 = getelementptr inbounds nuw %struct.GetBitContext, ptr %26, i32 0, i32 2
  %28 = load i32, ptr %27, align 8, !tbaa !149
  %29 = load ptr, ptr %2, align 8, !tbaa !135
  %30 = getelementptr inbounds nuw %struct.GetBitContext, ptr %29, i32 0, i32 4
  %31 = load i32, ptr %30, align 8, !tbaa !150
  %32 = icmp slt i32 %28, %31
  br i1 %32, label %33, label %36

33:                                               ; preds = %1
  %34 = load i32, ptr %3, align 4, !tbaa !32
  %35 = add i32 %34, 1
  store i32 %35, ptr %3, align 4, !tbaa !32
  br label %36

36:                                               ; preds = %33, %1
  %37 = load i32, ptr %3, align 4, !tbaa !32
  %38 = load ptr, ptr %2, align 8, !tbaa !135
  %39 = getelementptr inbounds nuw %struct.GetBitContext, ptr %38, i32 0, i32 2
  store i32 %37, ptr %39, align 8, !tbaa !149
  %40 = load i8, ptr %4, align 1, !tbaa !51
  %41 = zext i8 %40 to i32
  call void @llvm.lifetime.end.p0(i64 1, ptr %4) #11
  call void @llvm.lifetime.end.p0(i64 4, ptr %3) #11
  ret i32 %41
}

; Function Attrs: inlinehint nounwind uwtable
define internal i32 @get_bits_count(ptr noundef %0) #5 {
  %2 = alloca ptr, align 8
  store ptr %0, ptr %2, align 8, !tbaa !135
  %3 = load ptr, ptr %2, align 8, !tbaa !135
  %4 = getelementptr inbounds nuw %struct.GetBitContext, ptr %3, i32 0, i32 2
  %5 = load i32, ptr %4, align 8, !tbaa !149
  ret i32 %5
}

; Function Attrs: inlinehint nounwind uwtable
define internal i32 @get_bits(ptr noundef %0, i32 noundef %1) #5 {
  %3 = alloca ptr, align 8
  %4 = alloca i32, align 4
  %5 = alloca i32, align 4
  %6 = alloca i32, align 4
  %7 = alloca i32, align 4
  %8 = alloca i32, align 4
  store ptr %0, ptr %3, align 8, !tbaa !135
  store i32 %1, ptr %4, align 4, !tbaa !32
  call void @llvm.lifetime.start.p0(i64 4, ptr %5) #11
  call void @llvm.lifetime.start.p0(i64 4, ptr %6) #11
  %9 = load ptr, ptr %3, align 8, !tbaa !135
  %10 = getelementptr inbounds nuw %struct.GetBitContext, ptr %9, i32 0, i32 2
  %11 = load i32, ptr %10, align 8, !tbaa !149
  store i32 %11, ptr %6, align 4, !tbaa !32
  call void @llvm.lifetime.start.p0(i64 4, ptr %7) #11
  call void @llvm.lifetime.start.p0(i64 4, ptr %8) #11
  %12 = load ptr, ptr %3, align 8, !tbaa !135
  %13 = getelementptr inbounds nuw %struct.GetBitContext, ptr %12, i32 0, i32 4
  %14 = load i32, ptr %13, align 8, !tbaa !150
  store i32 %14, ptr %8, align 4, !tbaa !32
  %15 = load ptr, ptr %3, align 8, !tbaa !135
  %16 = getelementptr inbounds nuw %struct.GetBitContext, ptr %15, i32 0, i32 0
  %17 = load ptr, ptr %16, align 8, !tbaa !151
  %18 = load i32, ptr %6, align 4, !tbaa !32
  %19 = lshr i32 %18, 3
  %20 = zext i32 %19 to i64
  %21 = getelementptr inbounds nuw i8, ptr %17, i64 %20
  %22 = load i32, ptr %21, align 1, !tbaa !51
  %23 = call i32 @av_bswap32(i32 noundef %22) #14
  %24 = load i32, ptr %6, align 4, !tbaa !32
  %25 = and i32 %24, 7
  %26 = shl i32 %23, %25
  %27 = lshr i32 %26, 0
  store i32 %27, ptr %7, align 4, !tbaa !32
  %28 = load i32, ptr %7, align 4, !tbaa !32
  %29 = load i32, ptr %4, align 4, !tbaa !32
  %30 = sub nsw i32 32, %29
  %31 = lshr i32 %28, %30
  store i32 %31, ptr %5, align 4, !tbaa !32
  %32 = load i32, ptr %8, align 4, !tbaa !32
  %33 = load i32, ptr %6, align 4, !tbaa !32
  %34 = load i32, ptr %4, align 4, !tbaa !32
  %35 = add i32 %33, %34
  %36 = icmp ugt i32 %32, %35
  br i1 %36, label %37, label %41

37:                                               ; preds = %2
  %38 = load i32, ptr %6, align 4, !tbaa !32
  %39 = load i32, ptr %4, align 4, !tbaa !32
  %40 = add i32 %38, %39
  br label %43

41:                                               ; preds = %2
  %42 = load i32, ptr %8, align 4, !tbaa !32
  br label %43

43:                                               ; preds = %41, %37
  %44 = phi i32 [ %40, %37 ], [ %42, %41 ]
  store i32 %44, ptr %6, align 4, !tbaa !32
  %45 = load i32, ptr %6, align 4, !tbaa !32
  %46 = load ptr, ptr %3, align 8, !tbaa !135
  %47 = getelementptr inbounds nuw %struct.GetBitContext, ptr %46, i32 0, i32 2
  store i32 %45, ptr %47, align 8, !tbaa !149
  %48 = load i32, ptr %5, align 4, !tbaa !32
  call void @llvm.lifetime.end.p0(i64 4, ptr %8) #11
  call void @llvm.lifetime.end.p0(i64 4, ptr %7) #11
  call void @llvm.lifetime.end.p0(i64 4, ptr %6) #11
  call void @llvm.lifetime.end.p0(i64 4, ptr %5) #11
  ret i32 %48
}

; Function Attrs: inlinehint nounwind uwtable
define internal i32 @get_unary(ptr noundef %0, i32 noundef %1, i32 noundef %2) #5 {
  %4 = alloca ptr, align 8
  %5 = alloca i32, align 4
  %6 = alloca i32, align 4
  %7 = alloca i32, align 4
  store ptr %0, ptr %4, align 8, !tbaa !135
  store i32 %1, ptr %5, align 4, !tbaa !32
  store i32 %2, ptr %6, align 4, !tbaa !32
  call void @llvm.lifetime.start.p0(i64 4, ptr %7) #11
  store i32 0, ptr %7, align 4, !tbaa !32
  br label %8

8:                                                ; preds = %20, %3
  %9 = load i32, ptr %7, align 4, !tbaa !32
  %10 = load i32, ptr %6, align 4, !tbaa !32
  %11 = icmp slt i32 %9, %10
  br i1 %11, label %12, label %17

12:                                               ; preds = %8
  %13 = load ptr, ptr %4, align 8, !tbaa !135
  %14 = call i32 @get_bits1(ptr noundef %13)
  %15 = load i32, ptr %5, align 4, !tbaa !32
  %16 = icmp ne i32 %14, %15
  br label %17

17:                                               ; preds = %12, %8
  %18 = phi i1 [ false, %8 ], [ %16, %12 ]
  br i1 %18, label %19, label %23

19:                                               ; preds = %17
  br label %20

20:                                               ; preds = %19
  %21 = load i32, ptr %7, align 4, !tbaa !32
  %22 = add nsw i32 %21, 1
  store i32 %22, ptr %7, align 4, !tbaa !32
  br label %8, !llvm.loop !148

23:                                               ; preds = %17
  %24 = load i32, ptr %7, align 4, !tbaa !32
  call void @llvm.lifetime.end.p0(i64 4, ptr %7) #11
  ret i32 %24
}

; Function Attrs: inlinehint nounwind uwtable
define internal i32 @get_bits_left(ptr noundef %0) #5 {
  %2 = alloca ptr, align 8
  store ptr %0, ptr %2, align 8, !tbaa !135
  %3 = load ptr, ptr %2, align 8, !tbaa !135
  %4 = getelementptr inbounds nuw %struct.GetBitContext, ptr %3, i32 0, i32 3
  %5 = load i32, ptr %4, align 4, !tbaa !147
  %6 = load ptr, ptr %2, align 8, !tbaa !135
  %7 = call i32 @get_bits_count(ptr noundef %6)
  %8 = sub nsw i32 %5, %7
  ret i32 %8
}

; Function Attrs: inlinehint nounwind uwtable
define internal i32 @ape_decode_value_3860(ptr noundef %0, ptr noundef %1, ptr noundef %2) #5 {
  %4 = alloca i32, align 4
  %5 = alloca ptr, align 8
  %6 = alloca ptr, align 8
  %7 = alloca ptr, align 8
  %8 = alloca i32, align 4
  %9 = alloca i32, align 4
  %10 = alloca i32, align 4
  store ptr %0, ptr %5, align 8, !tbaa !29
  store ptr %1, ptr %6, align 8, !tbaa !135
  store ptr %2, ptr %7, align 8, !tbaa !137
  call void @llvm.lifetime.start.p0(i64 4, ptr %8) #11
  call void @llvm.lifetime.start.p0(i64 4, ptr %9) #11
  %11 = load ptr, ptr %6, align 8, !tbaa !135
  %12 = load ptr, ptr %6, align 8, !tbaa !135
  %13 = call i32 @get_bits_left(ptr noundef %12)
  %14 = call i32 @get_unary(ptr noundef %11, i32 noundef 1, i32 noundef %13)
  store i32 %14, ptr %9, align 4, !tbaa !32
  %15 = load ptr, ptr %5, align 8, !tbaa !29
  %16 = getelementptr inbounds nuw %struct.APEContext, ptr %15, i32 0, i32 7
  %17 = load i32, ptr %16, align 4, !tbaa !52
  %18 = icmp sgt i32 %17, 3880
  br i1 %18, label %19, label %31

19:                                               ; preds = %3
  br label %20

20:                                               ; preds = %23, %19
  %21 = load i32, ptr %9, align 4, !tbaa !32
  %22 = icmp uge i32 %21, 16
  br i1 %22, label %23, label %30

23:                                               ; preds = %20
  %24 = load i32, ptr %9, align 4, !tbaa !32
  %25 = sub i32 %24, 16
  store i32 %25, ptr %9, align 4, !tbaa !32
  %26 = load ptr, ptr %7, align 8, !tbaa !137
  %27 = getelementptr inbounds nuw %struct.APERice, ptr %26, i32 0, i32 0
  %28 = load i32, ptr %27, align 4, !tbaa !141
  %29 = add i32 %28, 4
  store i32 %29, ptr %27, align 4, !tbaa !141
  br label %20, !llvm.loop !152

30:                                               ; preds = %20
  br label %31

31:                                               ; preds = %30, %3
  %32 = load ptr, ptr %7, align 8, !tbaa !137
  %33 = getelementptr inbounds nuw %struct.APERice, ptr %32, i32 0, i32 0
  %34 = load i32, ptr %33, align 4, !tbaa !141
  %35 = icmp ne i32 %34, 0
  br i1 %35, label %38, label %36

36:                                               ; preds = %31
  %37 = load i32, ptr %9, align 4, !tbaa !32
  store i32 %37, ptr %8, align 4, !tbaa !32
  br label %65

38:                                               ; preds = %31
  %39 = load ptr, ptr %7, align 8, !tbaa !137
  %40 = getelementptr inbounds nuw %struct.APERice, ptr %39, i32 0, i32 0
  %41 = load i32, ptr %40, align 4, !tbaa !141
  %42 = icmp ule i32 %41, 25
  br i1 %42, label %43, label %55

43:                                               ; preds = %38
  %44 = load i32, ptr %9, align 4, !tbaa !32
  %45 = load ptr, ptr %7, align 8, !tbaa !137
  %46 = getelementptr inbounds nuw %struct.APERice, ptr %45, i32 0, i32 0
  %47 = load i32, ptr %46, align 4, !tbaa !141
  %48 = shl i32 %44, %47
  %49 = load ptr, ptr %6, align 8, !tbaa !135
  %50 = load ptr, ptr %7, align 8, !tbaa !137
  %51 = getelementptr inbounds nuw %struct.APERice, ptr %50, i32 0, i32 0
  %52 = load i32, ptr %51, align 4, !tbaa !141
  %53 = call i32 @get_bits(ptr noundef %49, i32 noundef %52)
  %54 = add i32 %48, %53
  store i32 %54, ptr %8, align 4, !tbaa !32
  br label %64

55:                                               ; preds = %38
  %56 = load ptr, ptr %5, align 8, !tbaa !29
  %57 = getelementptr inbounds nuw %struct.APEContext, ptr %56, i32 0, i32 1
  %58 = load ptr, ptr %57, align 8, !tbaa !48
  %59 = load ptr, ptr %7, align 8, !tbaa !137
  %60 = getelementptr inbounds nuw %struct.APERice, ptr %59, i32 0, i32 0
  %61 = load i32, ptr %60, align 4, !tbaa !141
  call void (ptr, i32, ptr, ...) @av_log(ptr noundef %58, i32 noundef 16, ptr noundef @.str.14, i32 noundef %61)
  %62 = load ptr, ptr %5, align 8, !tbaa !29
  %63 = getelementptr inbounds nuw %struct.APEContext, ptr %62, i32 0, i32 33
  store i32 1, ptr %63, align 8, !tbaa !95
  store i32 -1094995529, ptr %4, align 4
  store i32 1, ptr %10, align 4
  br label %128

64:                                               ; preds = %43
  br label %65

65:                                               ; preds = %64, %36
  %66 = load i32, ptr %8, align 4, !tbaa !32
  %67 = load ptr, ptr %7, align 8, !tbaa !137
  %68 = getelementptr inbounds nuw %struct.APERice, ptr %67, i32 0, i32 1
  %69 = load i32, ptr %68, align 4, !tbaa !139
  %70 = add i32 %69, 8
  %71 = lshr i32 %70, 4
  %72 = sub i32 %66, %71
  %73 = load ptr, ptr %7, align 8, !tbaa !137
  %74 = getelementptr inbounds nuw %struct.APERice, ptr %73, i32 0, i32 1
  %75 = load i32, ptr %74, align 4, !tbaa !139
  %76 = add i32 %75, %72
  store i32 %76, ptr %74, align 4, !tbaa !139
  %77 = load ptr, ptr %7, align 8, !tbaa !137
  %78 = getelementptr inbounds nuw %struct.APERice, ptr %77, i32 0, i32 1
  %79 = load i32, ptr %78, align 4, !tbaa !139
  %80 = load ptr, ptr %7, align 8, !tbaa !137
  %81 = getelementptr inbounds nuw %struct.APERice, ptr %80, i32 0, i32 0
  %82 = load i32, ptr %81, align 4, !tbaa !141
  %83 = icmp ne i32 %82, 0
  br i1 %83, label %84, label %90

84:                                               ; preds = %65
  %85 = load ptr, ptr %7, align 8, !tbaa !137
  %86 = getelementptr inbounds nuw %struct.APERice, ptr %85, i32 0, i32 0
  %87 = load i32, ptr %86, align 4, !tbaa !141
  %88 = add i32 %87, 4
  %89 = shl i32 1, %88
  br label %91

90:                                               ; preds = %65
  br label %91

91:                                               ; preds = %90, %84
  %92 = phi i32 [ %89, %84 ], [ 0, %90 ]
  %93 = icmp ult i32 %79, %92
  br i1 %93, label %94, label %99

94:                                               ; preds = %91
  %95 = load ptr, ptr %7, align 8, !tbaa !137
  %96 = getelementptr inbounds nuw %struct.APERice, ptr %95, i32 0, i32 0
  %97 = load i32, ptr %96, align 4, !tbaa !141
  %98 = add i32 %97, -1
  store i32 %98, ptr %96, align 4, !tbaa !141
  br label %120

99:                                               ; preds = %91
  %100 = load ptr, ptr %7, align 8, !tbaa !137
  %101 = getelementptr inbounds nuw %struct.APERice, ptr %100, i32 0, i32 1
  %102 = load i32, ptr %101, align 4, !tbaa !139
  %103 = load ptr, ptr %7, align 8, !tbaa !137
  %104 = getelementptr inbounds nuw %struct.APERice, ptr %103, i32 0, i32 0
  %105 = load i32, ptr %104, align 4, !tbaa !141
  %106 = add i32 %105, 5
  %107 = shl i32 1, %106
  %108 = icmp uge i32 %102, %107
  br i1 %108, label %109, label %119

109:                                              ; preds = %99
  %110 = load ptr, ptr %7, align 8, !tbaa !137
  %111 = getelementptr inbounds nuw %struct.APERice, ptr %110, i32 0, i32 0
  %112 = load i32, ptr %111, align 4, !tbaa !141
  %113 = icmp ult i32 %112, 24
  br i1 %113, label %114, label %119

114:                                              ; preds = %109
  %115 = load ptr, ptr %7, align 8, !tbaa !137
  %116 = getelementptr inbounds nuw %struct.APERice, ptr %115, i32 0, i32 0
  %117 = load i32, ptr %116, align 4, !tbaa !141
  %118 = add i32 %117, 1
  store i32 %118, ptr %116, align 4, !tbaa !141
  br label %119

119:                                              ; preds = %114, %109, %99
  br label %120

120:                                              ; preds = %119, %94
  %121 = load i32, ptr %8, align 4, !tbaa !32
  %122 = lshr i32 %121, 1
  %123 = load i32, ptr %8, align 4, !tbaa !32
  %124 = and i32 %123, 1
  %125 = sub i32 %124, 1
  %126 = xor i32 %122, %125
  %127 = add i32 %126, 1
  store i32 %127, ptr %4, align 4
  store i32 1, ptr %10, align 4
  br label %128

128:                                              ; preds = %120, %55
  call void @llvm.lifetime.end.p0(i64 4, ptr %9) #11
  call void @llvm.lifetime.end.p0(i64 4, ptr %8) #11
  %129 = load i32, ptr %4, align 4
  ret i32 %129
}