; Function Attrs: inlinehint nounwind uwtable
define internal fastcc i32 @ape_decode_value_3860(ptr noundef captures(none) %0, ptr noundef captures(none) %1, ptr noundef captures(none) %2) unnamed_addr #8 {
  %4 = getelementptr i8, ptr %1, i64 16
  %.val = load i32, ptr %4, align 8, !tbaa !77
  %5 = getelementptr i8, ptr %1, i64 20
  %.val41 = load i32, ptr %5, align 4, !tbaa !74
  %6 = sub nsw i32 %.val41, %.val
  %7 = icmp sgt i32 %6, 0
  br i1 %7, label %.lr.ph.i, label %thread-pre-split

.lr.ph.i:                                         ; preds = %3
  %8 = load ptr, ptr %1, align 8, !tbaa !73
  %9 = getelementptr inbounds nuw i8, ptr %1, i64 24
  %10 = load i32, ptr %9, align 8, !tbaa !75
  br label %11

11:                                               ; preds = %22, %.lr.ph.i
  %spec.select.i8.i = phi i32 [ %.val, %.lr.ph.i ], [ %spec.select.i.i, %22 ]
  %.05.i = phi i32 [ 0, %.lr.ph.i ], [ %23, %22 ]
  %12 = lshr i32 %spec.select.i8.i, 3
  %13 = zext nneg i32 %12 to i64
  %14 = getelementptr inbounds nuw i8, ptr %8, i64 %13
  %15 = load i8, ptr %14, align 1, !tbaa !47
  %16 = icmp slt i32 %spec.select.i8.i, %10
  %17 = zext i1 %16 to i32
  %spec.select.i.i = add i32 %spec.select.i8.i, %17
  %18 = zext i8 %15 to i32
  %19 = and i32 %spec.select.i8.i, 7
  store i32 %spec.select.i.i, ptr %4, align 8, !tbaa !77
  %20 = lshr exact i32 128, %19
  %21 = and i32 %20, %18
  %.not.not.i = icmp eq i32 %21, 0
  br i1 %.not.not.i, label %22, label %get_unary.exit

22:                                               ; preds = %11
  %23 = add nuw nsw i32 %.05.i, 1
  %exitcond.not.i = icmp eq i32 %23, %6
  br i1 %exitcond.not.i, label %get_unary.exit, label %11, !llvm.loop !137

get_unary.exit:                                   ; preds = %11, %22
  %.0.lcssa.i = phi i32 [ %6, %22 ], [ %.05.i, %11 ]
  %24 = getelementptr inbounds nuw i8, ptr %0, i64 60
  %25 = load i32, ptr %24, align 4, !tbaa !48
  %26 = icmp sgt i32 %25, 3880
  %27 = icmp ugt i32 %.0.lcssa.i, 15
  %or.cond = and i1 %27, %26
  br i1 %or.cond, label %.preheader, label %thread-pre-split

.preheader:                                       ; preds = %get_unary.exit
  %.promoted = load i32, ptr %2, align 4, !tbaa !139
  %28 = add nsw i32 %.0.lcssa.i, -16
  %29 = and i32 %.0.lcssa.i, 15
  %30 = lshr i32 %28, 2
  %31 = and i32 %30, 1073741820
  %32 = add i32 %.promoted, %31
  %33 = add i32 %32, 4
  store i32 %33, ptr %2, align 4, !tbaa !139
  br label %35

thread-pre-split:                                 ; preds = %3, %get_unary.exit
  %34 = phi i32 [ %spec.select.i.i, %get_unary.exit ], [ %.val, %3 ]
  %.0.ph = phi i32 [ %.0.lcssa.i, %get_unary.exit ], [ 0, %3 ]
  %.pr = load i32, ptr %2, align 4, !tbaa !139
  br label %35

35:                                               ; preds = %.preheader, %thread-pre-split
  %36 = phi i32 [ %34, %thread-pre-split ], [ %spec.select.i.i, %.preheader ]
  %37 = phi i32 [ %.pr, %thread-pre-split ], [ %33, %.preheader ]
  %.0 = phi i32 [ %.0.ph, %thread-pre-split ], [ %29, %.preheader ]
  %.not = icmp ne i32 %37, 0
  br i1 %.not, label %38, label %58

38:                                               ; preds = %35
  %39 = icmp ult i32 %37, 26
  br i1 %39, label %40, label %54

40:                                               ; preds = %38
  %41 = getelementptr inbounds nuw i8, ptr %1, i64 24
  %42 = load i32, ptr %41, align 8, !tbaa !75
  %43 = load ptr, ptr %1, align 8, !tbaa !73
  %44 = lshr i32 %36, 3
  %45 = zext nneg i32 %44 to i64
  %46 = getelementptr inbounds nuw i8, ptr %43, i64 %45
  %47 = load i32, ptr %46, align 1, !tbaa !47
  %48 = tail call i32 @llvm.bswap.i32(i32 %47)
  %49 = and i32 %36, 7
  %50 = shl i32 %48, %49
  %51 = add i32 %36, %37
  %52 = tail call i32 @llvm.umin.i32(i32 %42, i32 %51)
  store i32 %52, ptr %4, align 8, !tbaa !77
  %53 = tail call i32 @llvm.fshl.i32(i32 %.0, i32 %50, i32 %37)
  br label %58

54:                                               ; preds = %38
  %55 = getelementptr inbounds nuw i8, ptr %0, i64 8
  %56 = load ptr, ptr %55, align 8, !tbaa !44
  tail call void (ptr, i32, ptr, ...) @av_log(ptr noundef %56, i32 noundef 16, ptr noundef nonnull @.str.14, i32 noundef %37) #14
  %57 = getelementptr inbounds nuw i8, ptr %0, i64 7576
  store i32 1, ptr %57, align 8, !tbaa !88
  br label %78

58:                                               ; preds = %35, %40
  %.031 = phi i32 [ %53, %40 ], [ %.0, %35 ]
  %59 = getelementptr inbounds nuw i8, ptr %2, i64 4
  %60 = load i32, ptr %59, align 4, !tbaa !136
  %61 = add i32 %60, 8
  %62 = lshr i32 %61, 4
  %63 = sub i32 %.031, %62
  %64 = add i32 %63, %60
  store i32 %64, ptr %59, align 4, !tbaa !136
  %65 = shl nuw nsw i32 16, %37
  %66 = icmp ugt i32 %65, %64
  %67 = select i1 %.not, i1 %66, i1 false
  br i1 %67, label %.sink.split, label %68

68:                                               ; preds = %58
  %69 = add nuw nsw i32 %37, 5
  %.highbits = lshr i32 %64, %69
  %.not39 = icmp ne i32 %.highbits, 0
  %70 = icmp samesign ult i32 %37, 24
  %or.cond40 = and i1 %70, %.not39
  br i1 %or.cond40, label %.sink.split, label %72

.sink.split:                                      ; preds = %68, %58
  %.sink47 = phi i32 [ -1, %58 ], [ 1, %68 ]
  %71 = add nsw i32 %37, %.sink47
  store i32 %71, ptr %2, align 4, !tbaa !139
  br label %72

72:                                               ; preds = %.sink.split, %68
  %73 = lshr i32 %.031, 1
  %74 = and i32 %.031, 1
  %75 = add nsw i32 %74, -1
  %76 = xor i32 %75, %73
  %77 = add i32 %76, 1
  br label %78

78:                                               ; preds = %72, %54
  %.032 = phi i32 [ %77, %72 ], [ -1094995529, %54 ]
  ret i32 %.032
}